; ModuleID = '31/1553.c'
source_filename = "31/1553.c"
target datalayout = "e-m:e-p270:32:32-p271:32:32-p272:64:64-i64:64-f80:128-n8:16:32:64-S128"
target triple = "x86_64-pc-linux-gnu"

%struct.stu = type { [10 x i8], [20 x i8], i8, i32, [10 x i8], [15 x i8], %struct.stu* }

@.str = private unnamed_addr constant [18 x i8] c"%s %s %c %d %s %s\00", align 1
@i = common dso_local global i32 0, align 4
@.str.1 = private unnamed_addr constant [3 x i8] c"%s\00", align 1
@.str.2 = private unnamed_addr constant [15 x i8] c"%s %c %d %s %s\00", align 1
@.str.3 = private unnamed_addr constant [19 x i8] c"%s %s %c %d %s %s\0A\00", align 1
@student = common dso_local global %struct.stu zeroinitializer, align 8

; Function Attrs: noinline nounwind uwtable
define dso_local %struct.stu* @creat() #0 {
  %1 = alloca %struct.stu*, align 8
  %2 = alloca %struct.stu*, align 8
  %3 = alloca %struct.stu*, align 8
  %4 = call noalias i8* @malloc(i64 72) #3
  %5 = bitcast i8* %4 to %struct.stu*
  store %struct.stu* %5, %struct.stu** %2, align 8
  store %struct.stu* %5, %struct.stu** %1, align 8
  %6 = load %struct.stu*, %struct.stu** %1, align 8
  %7 = getelementptr inbounds %struct.stu, %struct.stu* %6, i32 0, i32 0
  %8 = getelementptr inbounds [10 x i8], [10 x i8]* %7, i64 0, i64 0
  %9 = load %struct.stu*, %struct.stu** %1, align 8
  %10 = getelementptr inbounds %struct.stu, %struct.stu* %9, i32 0, i32 1
  %11 = getelementptr inbounds [20 x i8], [20 x i8]* %10, i64 0, i64 0
  %12 = load %struct.stu*, %struct.stu** %1, align 8
  %13 = getelementptr inbounds %struct.stu, %struct.stu* %12, i32 0, i32 2
  %14 = load %struct.stu*, %struct.stu** %1, align 8
  %15 = getelementptr inbounds %struct.stu, %struct.stu* %14, i32 0, i32 3
  %16 = load %struct.stu*, %struct.stu** %1, align 8
  %17 = getelementptr inbounds %struct.stu, %struct.stu* %16, i32 0, i32 4
  %18 = getelementptr inbounds [10 x i8], [10 x i8]* %17, i64 0, i64 0
  %19 = load %struct.stu*, %struct.stu** %1, align 8
  %20 = getelementptr inbounds %struct.stu, %struct.stu* %19, i32 0, i32 5
  %21 = getelementptr inbounds [15 x i8], [15 x i8]* %20, i64 0, i64 0
  %22 = call i32 (i8*, ...) @__isoc99_scanf(i8* getelementptr inbounds ([18 x i8], [18 x i8]* @.str, i64 0, i64 0), i8* %8, i8* %11, i8* %13, i32* %15, i8* %18, i8* %21)
  store %struct.stu* null, %struct.stu** %3, align 8
  store i32 0, i32* @i, align 4
  br label %23

23:                                               ; preds = %0, %47
  %24 = load i32, i32* @i, align 4
  %25 = icmp eq i32 %24, 0
  br i1 %25, label %26, label %28

26:                                               ; preds = %23
  %27 = load %struct.stu*, %struct.stu** %1, align 8
  store %struct.stu* %27, %struct.stu** %3, align 8
  br label %32

28:                                               ; preds = %23
  %29 = load %struct.stu*, %struct.stu** %1, align 8
  %30 = load %struct.stu*, %struct.stu** %2, align 8
  %31 = getelementptr inbounds %struct.stu, %struct.stu* %30, i32 0, i32 6
  store %struct.stu* %29, %struct.stu** %31, align 8
  br label %32

32:                                               ; preds = %28, %26
  %33 = load %struct.stu*, %struct.stu** %1, align 8
  store %struct.stu* %33, %struct.stu** %2, align 8
  %34 = call noalias i8* @malloc(i64 100) #3
  %35 = bitcast i8* %34 to %struct.stu*
  store %struct.stu* %35, %struct.stu** %1, align 8
  %36 = load %struct.stu*, %struct.stu** %1, align 8
  %37 = getelementptr inbounds %struct.stu, %struct.stu* %36, i32 0, i32 0
  %38 = getelementptr inbounds [10 x i8], [10 x i8]* %37, i64 0, i64 0
  %39 = call i32 (i8*, ...) @__isoc99_scanf(i8* getelementptr inbounds ([3 x i8], [3 x i8]* @.str.1, i64 0, i64 0), i8* %38)
  %40 = load %struct.stu*, %struct.stu** %1, align 8
  %41 = getelementptr inbounds %struct.stu, %struct.stu* %40, i32 0, i32 0
  %42 = getelementptr inbounds [10 x i8], [10 x i8]* %41, i64 0, i64 0
  %43 = load i8, i8* %42, align 8
  %44 = sext i8 %43 to i32
  %45 = icmp eq i32 %44, 101
  br i1 %45, label %46, label %47

46:                                               ; preds = %32
  br label %64

47:                                               ; preds = %32
  %48 = load %struct.stu*, %struct.stu** %1, align 8
  %49 = getelementptr inbounds %struct.stu, %struct.stu* %48, i32 0, i32 1
  %50 = getelementptr inbounds [20 x i8], [20 x i8]* %49, i64 0, i64 0
  %51 = load %struct.stu*, %struct.stu** %1, align 8
  %52 = getelementptr inbounds %struct.stu, %struct.stu* %51, i32 0, i32 2
  %53 = load %struct.stu*, %struct.stu** %1, align 8
  %54 = getelementptr inbounds %struct.stu, %struct.stu* %53, i32 0, i32 3
  %55 = load %struct.stu*, %struct.stu** %1, align 8
  %56 = getelementptr inbounds %struct.stu, %struct.stu* %55, i32 0, i32 4
  %57 = getelementptr inbounds [10 x i8], [10 x i8]* %56, i64 0, i64 0
  %58 = load %struct.stu*, %struct.stu** %1, align 8
  %59 = getelementptr inbounds %struct.stu, %struct.stu* %58, i32 0, i32 5
  %60 = getelementptr inbounds [15 x i8], [15 x i8]* %59, i64 0, i64 0
  %61 = call i32 (i8*, ...) @__isoc99_scanf(i8* getelementptr inbounds ([15 x i8], [15 x i8]* @.str.2, i64 0, i64 0), i8* %50, i8* %52, i32* %54, i8* %57, i8* %60)
  %62 = load i32, i32* @i, align 4
  %63 = add nsw i32 %62, 1
  store i32 %63, i32* @i, align 4
  br label %23

64:                                               ; preds = %46
  %65 = load %struct.stu*, %struct.stu** %3, align 8
  ret %struct.stu* %65
}

; Function Attrs: nounwind
declare dso_local noalias i8* @malloc(i64) #1

declare dso_local i32 @__isoc99_scanf(i8*, ...) #2

; Function Attrs: noinline nounwind uwtable
define dso_local void @main() #0 {
  %1 = alloca %struct.stu*, align 8
  %2 = alloca %struct.stu*, align 8
  %3 = alloca i32, align 4
  %4 = call %struct.stu* @creat()
  store %struct.stu* %4, %struct.stu** %2, align 8
  br label %5

5:                                                ; preds = %42, %0
  %6 = load i32, i32* @i, align 4
  %7 = icmp sgt i32 %6, 0
  br i1 %7, label %8, label %45

8:                                                ; preds = %5
  %9 = load %struct.stu*, %struct.stu** %2, align 8
  store %struct.stu* %9, %struct.stu** %1, align 8
  store i32 0, i32* %3, align 4
  br label %10

10:                                               ; preds = %18, %8
  %11 = load i32, i32* %3, align 4
  %12 = load i32, i32* @i, align 4
  %13 = icmp slt i32 %11, %12
  br i1 %13, label %14, label %21

14:                                               ; preds = %10
  %15 = load %struct.stu*, %struct.stu** %1, align 8
  %16 = getelementptr inbounds %struct.stu, %struct.stu* %15, i32 0, i32 6
  %17 = load %struct.stu*, %struct.stu** %16, align 8
  store %struct.stu* %17, %struct.stu** %1, align 8
  br label %18

18:                                               ; preds = %14
  %19 = load i32, i32* %3, align 4
  %20 = add nsw i32 %19, 1
  store i32 %20, i32* %3, align 4
  br label %10

21:                                               ; preds = %10
  %22 = load %struct.stu*, %struct.stu** %1, align 8
  %23 = getelementptr inbounds %struct.stu, %struct.stu* %22, i32 0, i32 0
  %24 = getelementptr inbounds [10 x i8], [10 x i8]* %23, i64 0, i64 0
  %25 = load %struct.stu*, %struct.stu** %1, align 8
  %26 = getelementptr inbounds %struct.stu, %struct.stu* %25, i32 0, i32 1
  %27 = getelementptr inbounds [20 x i8], [20 x i8]* %26, i64 0, i64 0
  %28 = load %struct.stu*, %struct.stu** %1, align 8
  %29 = getelementptr inbounds %struct.stu, %struct.stu* %28, i32 0, i32 2
  %30 = load i8, i8* %29, align 2
  %31 = sext i8 %30 to i32
  %32 = load %struct.stu*, %struct.stu** %1, align 8
  %33 = getelementptr inbounds %struct.stu, %struct.stu* %32, i32 0, i32 3
  %34 = load i32, i32* %33, align 8
  %35 = load %struct.stu*, %struct.stu** %1, align 8
  %36 = getelementptr inbounds %struct.stu, %struct.stu* %35, i32 0, i32 4
  %37 = getelementptr inbounds [10 x i8], [10 x i8]* %36, i64 0, i64 0
  %38 = load %struct.stu*, %struct.stu** %1, align 8
  %39 = getelementptr inbounds %struct.stu, %struct.stu* %38, i32 0, i32 5
  %40 = getelementptr inbounds [15 x i8], [15 x i8]* %39, i64 0, i64 0
  %41 = call i32 (i8*, ...) @printf(i8* getelementptr inbounds ([19 x i8], [19 x i8]* @.str.3, i64 0, i64 0), i8* %24, i8* %27, i32 %31, i32 %34, i8* %37, i8* %40)
  br label %42

42:                                               ; preds = %21
  %43 = load i32, i32* @i, align 4
  %44 = add nsw i32 %43, -1
  store i32 %44, i32* @i, align 4
  br label %5

45:                                               ; preds = %5
  %46 = load %struct.stu*, %struct.stu** %2, align 8
  %47 = getelementptr inbounds %struct.stu, %struct.stu* %46, i32 0, i32 0
  %48 = getelementptr inbounds [10 x i8], [10 x i8]* %47, i64 0, i64 0
  %49 = load %struct.stu*, %struct.stu** %2, align 8
  %50 = getelementptr inbounds %struct.stu, %struct.stu* %49, i32 0, i32 1
  %51 = getelementptr inbounds [20 x i8], [20 x i8]* %50, i64 0, i64 0
  %52 = load %struct.stu*, %struct.stu** %2, align 8
  %53 = getelementptr inbounds %struct.stu, %struct.stu* %52, i32 0, i32 2
  %54 = load i8, i8* %53, align 2
  %55 = sext i8 %54 to i32
  %56 = load %struct.stu*, %struct.stu** %2, align 8
  %57 = getelementptr inbounds %struct.stu, %struct.stu* %56, i32 0, i32 3
  %58 = load i32, i32* %57, align 8
  %59 = load %struct.stu*, %struct.stu** %2, align 8
  %60 = getelementptr inbounds %struct.stu, %struct.stu* %59, i32 0, i32 4
  %61 = getelementptr inbounds [10 x i8], [10 x i8]* %60, i64 0, i64 0
  %62 = load %struct.stu*, %struct.stu** %2, align 8
  %63 = getelementptr inbounds %struct.stu, %struct.stu* %62, i32 0, i32 5
  %64 = getelementptr inbounds [15 x i8], [15 x i8]* %63, i64 0, i64 0
  %65 = call i32 (i8*, ...) @printf(i8* getelementptr inbounds ([19 x i8], [19 x i8]* @.str.3, i64 0, i64 0), i8* %48, i8* %51, i32 %55, i32 %58, i8* %61, i8* %64)
  ret void
}

declare dso_local i32 @printf(i8*, ...) #2


!llvm.module.flags = !{!0}
!llvm.ident = !{!1}

!0 = !{i32 1, !"wchar_size", i32 4}
!1 = !{!"clang version 10.0.0-4ubuntu1 "}
